target datalayout = "e-m:e-p270:32:32-p271:32:32-p272:64:64-i64:64-i128:128-f80:128-n8:16:32:64-S128"
target triple = "x86_64-pc-linux-gnu"

%struct.expert_field = type { i32, i32 }

@ei_gmr1_missing_mandatory_element = internal global %struct.expert_field zeroinitializer, align 4
@.str.273 = private unnamed_addr constant [62 x i8] c"Missing Mandatory element %s%s, rest of dissection is suspect\00", align 1
@.str.274 = private unnamed_addr constant [1 x i8] zeroinitializer, align 1
@.str.281 = private unnamed_addr constant [64 x i8] c"Missing Mandatory elements %s %s, rest of dissection is suspect\00", align 1

; Function Attrs: null_pointer_is_valid sspstrong uwtable
define internal void @gmr1_rr_msg_imm_ass_3(ptr noundef %0, ptr noundef %1, ptr noundef %2, i32 noundef %3, i32 noundef %4) #1 {
  %6 = alloca ptr, align 8
  %7 = alloca ptr, align 8
  %8 = alloca ptr, align 8
  %9 = alloca i32, align 4
  %10 = alloca i32, align 4
  %11 = alloca i32, align 4
  %12 = alloca i32, align 4
  %13 = alloca i32, align 4
  store ptr %0, ptr %6, align 8
  store ptr %1, ptr %7, align 8
  store ptr %2, ptr %8, align 8
  store i32 %3, ptr %9, align 4
  store i32 %4, ptr %10, align 4
  call void @llvm.lifetime.start.p0(i64 4, ptr %11) #5
  call void @llvm.lifetime.start.p0(i64 4, ptr %12) #5
  call void @llvm.lifetime.start.p0(i64 4, ptr %13) #5
  %14 = load i32, ptr %9, align 4
  store i32 %14, ptr %11, align 4
  %15 = load i32, ptr %10, align 4
  store i32 %15, ptr %12, align 4
  store i32 0, ptr %13, align 4
  %16 = load i32, ptr %12, align 4
  %17 = icmp sgt i32 %16, 0
  br i1 %17, label %18, label %33

18:                                               ; preds = %5
  %19 = load ptr, ptr %6, align 8
  %20 = load ptr, ptr %7, align 8
  %21 = load ptr, ptr %8, align 8
  %22 = load i32, ptr %11, align 4
  %23 = call zeroext i16 @elem_v_short(ptr noundef %19, ptr noundef %20, ptr noundef %21, i32 noundef 15, i32 noundef 5, i32 noundef %22, i32 noundef 1)
  %24 = load ptr, ptr %6, align 8
  %25 = load ptr, ptr %7, align 8
  %26 = load ptr, ptr %8, align 8
  %27 = load i32, ptr %11, align 4
  %28 = call zeroext i16 @elem_v_short(ptr noundef %24, ptr noundef %25, ptr noundef %26, i32 noundef 14, i32 noundef 1, i32 noundef %27, i32 noundef 2)
  %29 = load i32, ptr %11, align 4
  %30 = add i32 %29, 1
  store i32 %30, ptr %11, align 4
  %31 = load i32, ptr %12, align 4
  %32 = add i32 %31, -1
  store i32 %32, ptr %12, align 4
  br label %41

33:                                               ; preds = %5
  %34 = load ptr, ptr %7, align 8
  %35 = load ptr, ptr %8, align 8
  %36 = load ptr, ptr %6, align 8
  %37 = load i32, ptr %11, align 4
  %38 = call ptr @get_gsm_a_msg_string(i32 noundef 15, i32 noundef 5)
  %39 = call ptr @get_gsm_a_msg_string(i32 noundef 14, i32 noundef 1)
  %40 = call ptr (ptr, ptr, ptr, ptr, i32, i32, ptr, ...) @proto_tree_add_expert_format(ptr noundef %34, ptr noundef %35, ptr noundef @ei_gmr1_missing_mandatory_element, ptr noundef %36, i32 noundef %37, i32 noundef 0, ptr noundef @.str.281, ptr noundef %38, ptr noundef %39)
  br label %41

41:                                               ; preds = %33, %18
  %42 = load i32, ptr %12, align 4
  %43 = icmp sgt i32 %42, 0
  br i1 %43, label %44, label %59

44:                                               ; preds = %41
  %45 = load ptr, ptr %6, align 8
  %46 = load ptr, ptr %7, align 8
  %47 = load ptr, ptr %8, align 8
  %48 = load i32, ptr %11, align 4
  %49 = call zeroext i16 @elem_v(ptr noundef %45, ptr noundef %46, ptr noundef %47, i32 noundef 15, i32 noundef 31, i32 noundef %48, ptr noundef null)
  %50 = zext i16 %49 to i32
  store i32 %50, ptr %13, align 4
  %51 = icmp sgt i32 %50, 0
  br i1 %51, label %52, label %59

52:                                               ; preds = %44
  %53 = load i32, ptr %13, align 4
  %54 = load i32, ptr %11, align 4
  %55 = add i32 %54, %53
  store i32 %55, ptr %11, align 4
  %56 = load i32, ptr %13, align 4
  %57 = load i32, ptr %12, align 4
  %58 = sub i32 %57, %56
  store i32 %58, ptr %12, align 4
  br label %66

59:                                               ; preds = %44, %41
  %60 = load ptr, ptr %7, align 8
  %61 = load ptr, ptr %8, align 8
  %62 = load ptr, ptr %6, align 8
  %63 = load i32, ptr %11, align 4
  %64 = call ptr @get_gsm_a_msg_string(i32 noundef 15, i32 noundef 31)
  %65 = call ptr (ptr, ptr, ptr, ptr, i32, i32, ptr, ...) @proto_tree_add_expert_format(ptr noundef %60, ptr noundef %61, ptr noundef @ei_gmr1_missing_mandatory_element, ptr noundef %62, i32 noundef %63, i32 noundef 0, ptr noundef @.str.273, ptr noundef %64, ptr noundef @.str.274)
  br label %66

66:                                               ; preds = %59, %52
  %67 = load i32, ptr %12, align 4
  %68 = icmp sgt i32 %67, 0
  br i1 %68, label %69, label %84

69:                                               ; preds = %66
  %70 = load ptr, ptr %6, align 8
  %71 = load ptr, ptr %7, align 8
  %72 = load ptr, ptr %8, align 8
  %73 = load i32, ptr %11, align 4
  %74 = call zeroext i16 @elem_v(ptr noundef %70, ptr noundef %71, ptr noundef %72, i32 noundef 15, i32 noundef 28, i32 noundef %73, ptr noundef null)
  %75 = zext i16 %74 to i32
  store i32 %75, ptr %13, align 4
  %76 = icmp sgt i32 %75, 0
  br i1 %76, label %77, label %84

77:                                               ; preds = %69
  %78 = load i32, ptr %13, align 4
  %79 = load i32, ptr %11, align 4
  %80 = add i32 %79, %78
  store i32 %80, ptr %11, align 4
  %81 = load i32, ptr %13, align 4
  %82 = load i32, ptr %12, align 4
  %83 = sub i32 %82, %81
  store i32 %83, ptr %12, align 4
  br label %91

84:                                               ; preds = %69, %66
  %85 = load ptr, ptr %7, align 8
  %86 = load ptr, ptr %8, align 8
  %87 = load ptr, ptr %6, align 8
  %88 = load i32, ptr %11, align 4
  %89 = call ptr @get_gsm_a_msg_string(i32 noundef 15, i32 noundef 28)
  %90 = call ptr (ptr, ptr, ptr, ptr, i32, i32, ptr, ...) @proto_tree_add_expert_format(ptr noundef %85, ptr noundef %86, ptr noundef @ei_gmr1_missing_mandatory_element, ptr noundef %87, i32 noundef %88, i32 noundef 0, ptr noundef @.str.273, ptr noundef %89, ptr noundef @.str.274)
  br label %91

91:                                               ; preds = %84, %77
  %92 = load i32, ptr %12, align 4
  %93 = icmp sgt i32 %92, 0
  br i1 %93, label %94, label %109

94:                                               ; preds = %91
  %95 = load ptr, ptr %6, align 8
  %96 = load ptr, ptr %7, align 8
  %97 = load ptr, ptr %8, align 8
  %98 = load i32, ptr %11, align 4
  %99 = call zeroext i16 @elem_v(ptr noundef %95, ptr noundef %96, ptr noundef %97, i32 noundef 15, i32 noundef 29, i32 noundef %98, ptr noundef null)
  %100 = zext i16 %99 to i32
  store i32 %100, ptr %13, align 4
  %101 = icmp sgt i32 %100, 0
  br i1 %101, label %102, label %109

102:                                              ; preds = %94
  %103 = load i32, ptr %13, align 4
  %104 = load i32, ptr %11, align 4
  %105 = add i32 %104, %103
  store i32 %105, ptr %11, align 4
  %106 = load i32, ptr %13, align 4
  %107 = load i32, ptr %12, align 4
  %108 = sub i32 %107, %106
  store i32 %108, ptr %12, align 4
  br label %116

109:                                              ; preds = %94, %91
  %110 = load ptr, ptr %7, align 8
  %111 = load ptr, ptr %8, align 8
  %112 = load ptr, ptr %6, align 8
  %113 = load i32, ptr %11, align 4
  %114 = call ptr @get_gsm_a_msg_string(i32 noundef 15, i32 noundef 29)
  %115 = call ptr (ptr, ptr, ptr, ptr, i32, i32, ptr, ...) @proto_tree_add_expert_format(ptr noundef %110, ptr noundef %111, ptr noundef @ei_gmr1_missing_mandatory_element, ptr noundef %112, i32 noundef %113, i32 noundef 0, ptr noundef @.str.273, ptr noundef %114, ptr noundef @.str.274)
  br label %116

116:                                              ; preds = %109, %102
  %117 = load i32, ptr %12, align 4
  %118 = icmp sgt i32 %117, 0
  br i1 %118, label %119, label %134

119:                                              ; preds = %116
  %120 = load ptr, ptr %6, align 8
  %121 = load ptr, ptr %7, align 8
  %122 = load ptr, ptr %8, align 8
  %123 = load i32, ptr %11, align 4
  %124 = call zeroext i16 @elem_v(ptr noundef %120, ptr noundef %121, ptr noundef %122, i32 noundef 15, i32 noundef 24, i32 noundef %123, ptr noundef null)
  %125 = zext i16 %124 to i32
  store i32 %125, ptr %13, align 4
  %126 = icmp sgt i32 %125, 0
  br i1 %126, label %127, label %134

127:                                              ; preds = %119
  %128 = load i32, ptr %13, align 4
  %129 = load i32, ptr %11, align 4
  %130 = add i32 %129, %128
  store i32 %130, ptr %11, align 4
  %131 = load i32, ptr %13, align 4
  %132 = load i32, ptr %12, align 4
  %133 = sub i32 %132, %131
  store i32 %133, ptr %12, align 4
  br label %141

134:                                              ; preds = %119, %116
  %135 = load ptr, ptr %7, align 8
  %136 = load ptr, ptr %8, align 8
  %137 = load ptr, ptr %6, align 8
  %138 = load i32, ptr %11, align 4
  %139 = call ptr @get_gsm_a_msg_string(i32 noundef 15, i32 noundef 24)
  %140 = call ptr (ptr, ptr, ptr, ptr, i32, i32, ptr, ...) @proto_tree_add_expert_format(ptr noundef %135, ptr noundef %136, ptr noundef @ei_gmr1_missing_mandatory_element, ptr noundef %137, i32 noundef %138, i32 noundef 0, ptr noundef @.str.273, ptr noundef %139, ptr noundef @.str.274)
  br label %141

141:                                              ; preds = %134, %127
  %142 = load i32, ptr %12, align 4
  %143 = icmp sgt i32 %142, 0
  br i1 %143, label %144, label %159

144:                                              ; preds = %141
  %145 = load ptr, ptr %6, align 8
  %146 = load ptr, ptr %7, align 8
  %147 = load ptr, ptr %8, align 8
  %148 = load i32, ptr %11, align 4
  %149 = call zeroext i16 @elem_v(ptr noundef %145, ptr noundef %146, ptr noundef %147, i32 noundef 15, i32 noundef 25, i32 noundef %148, ptr noundef null)
  %150 = zext i16 %149 to i32
  store i32 %150, ptr %13, align 4
  %151 = icmp sgt i32 %150, 0
  br i1 %151, label %152, label %159

152:                                              ; preds = %144
  %153 = load i32, ptr %13, align 4
  %154 = load i32, ptr %11, align 4
  %155 = add i32 %154, %153
  store i32 %155, ptr %11, align 4
  %156 = load i32, ptr %13, align 4
  %157 = load i32, ptr %12, align 4
  %158 = sub i32 %157, %156
  store i32 %158, ptr %12, align 4
  br label %166

159:                                              ; preds = %144, %141
  %160 = load ptr, ptr %7, align 8
  %161 = load ptr, ptr %8, align 8
  %162 = load ptr, ptr %6, align 8
  %163 = load i32, ptr %11, align 4
  %164 = call ptr @get_gsm_a_msg_string(i32 noundef 15, i32 noundef 25)
  %165 = call ptr (ptr, ptr, ptr, ptr, i32, i32, ptr, ...) @proto_tree_add_expert_format(ptr noundef %160, ptr noundef %161, ptr noundef @ei_gmr1_missing_mandatory_element, ptr noundef %162, i32 noundef %163, i32 noundef 0, ptr noundef @.str.273, ptr noundef %164, ptr noundef @.str.274)
  br label %166

166:                                              ; preds = %159, %152
  %167 = load i32, ptr %12, align 4
  %168 = icmp sgt i32 %167, 0
  br i1 %168, label %169, label %184

169:                                              ; preds = %166
  %170 = load ptr, ptr %6, align 8
  %171 = load ptr, ptr %7, align 8
  %172 = load ptr, ptr %8, align 8
  %173 = load i32, ptr %11, align 4
  %174 = call zeroext i16 @elem_v(ptr noundef %170, ptr noundef %171, ptr noundef %172, i32 noundef 15, i32 noundef 30, i32 noundef %173, ptr noundef null)
  %175 = zext i16 %174 to i32
  store i32 %175, ptr %13, align 4
  %176 = icmp sgt i32 %175, 0
  br i1 %176, label %177, label %184

177:                                              ; preds = %169
  %178 = load i32, ptr %13, align 4
  %179 = load i32, ptr %11, align 4
  %180 = add i32 %179, %178
  store i32 %180, ptr %11, align 4
  %181 = load i32, ptr %13, align 4
  %182 = load i32, ptr %12, align 4
  %183 = sub i32 %182, %181
  store i32 %183, ptr %12, align 4
  br label %191

184:                                              ; preds = %169, %166
  %185 = load ptr, ptr %7, align 8
  %186 = load ptr, ptr %8, align 8
  %187 = load ptr, ptr %6, align 8
  %188 = load i32, ptr %11, align 4
  %189 = call ptr @get_gsm_a_msg_string(i32 noundef 15, i32 noundef 30)
  %190 = call ptr (ptr, ptr, ptr, ptr, i32, i32, ptr, ...) @proto_tree_add_expert_format(ptr noundef %185, ptr noundef %186, ptr noundef @ei_gmr1_missing_mandatory_element, ptr noundef %187, i32 noundef %188, i32 noundef 0, ptr noundef @.str.273, ptr noundef %189, ptr noundef @.str.274)
  br label %191

191:                                              ; preds = %184, %177
  call void @llvm.lifetime.end.p0(i64 4, ptr %13) #5
  call void @llvm.lifetime.end.p0(i64 4, ptr %12) #5
  call void @llvm.lifetime.end.p0(i64 4, ptr %11) #5
  ret void
}