; Function Attrs: null_pointer_is_valid sspstrong uwtable
define internal void @gmr1_rr_msg_imm_ass_3(ptr noundef %0, ptr noundef %1, ptr noundef %2, i32 noundef %3, i32 noundef %4) #1 {
  %6 = icmp sgt i32 %4, 0
  br i1 %6, label %10, label %.thread

.thread:                                          ; preds = %5
  %7 = tail call ptr @get_gsm_a_msg_string(i32 noundef 15, i32 noundef 5)
  %8 = tail call ptr @get_gsm_a_msg_string(i32 noundef 14, i32 noundef 1)
  %9 = tail call ptr (ptr, ptr, ptr, ptr, i32, i32, ptr, ...) @proto_tree_add_expert_format(ptr noundef %1, ptr noundef %2, ptr noundef nonnull @ei_gmr1_missing_mandatory_element, ptr noundef %0, i32 noundef %3, i32 noundef 0, ptr noundef nonnull @.str.281, ptr noundef %7, ptr noundef %8)
  br label %21

10:                                               ; preds = %5
  %11 = tail call zeroext i16 @elem_v_short(ptr noundef %0, ptr noundef %1, ptr noundef %2, i32 noundef 15, i32 noundef 5, i32 noundef %3, i32 noundef 1)
  %12 = tail call zeroext i16 @elem_v_short(ptr noundef %0, ptr noundef %1, ptr noundef %2, i32 noundef 14, i32 noundef 1, i32 noundef %3, i32 noundef 2)
  %13 = add i32 %3, 1
  %14 = add nsw i32 %4, -1
  %.not116 = icmp eq i32 %14, 0
  br i1 %.not116, label %21, label %15

15:                                               ; preds = %10
  %16 = tail call zeroext i16 @elem_v(ptr noundef %0, ptr noundef %1, ptr noundef %2, i32 noundef 15, i32 noundef 31, i32 noundef %13, ptr noundef null)
  %.not = icmp eq i16 %16, 0
  br i1 %.not, label %21, label %17

17:                                               ; preds = %15
  %18 = zext i16 %16 to i32
  %19 = add i32 %13, %18
  %20 = sub nsw i32 %14, %18
  br label %24

21:                                               ; preds = %.thread, %15, %10
  %.0115 = phi i32 [ %4, %.thread ], [ %14, %15 ], [ 0, %10 ]
  %.094114 = phi i32 [ %3, %.thread ], [ %13, %15 ], [ %13, %10 ]
  %22 = tail call ptr @get_gsm_a_msg_string(i32 noundef 15, i32 noundef 31)
  %23 = tail call ptr (ptr, ptr, ptr, ptr, i32, i32, ptr, ...) @proto_tree_add_expert_format(ptr noundef %1, ptr noundef %2, ptr noundef nonnull @ei_gmr1_missing_mandatory_element, ptr noundef %0, i32 noundef %.094114, i32 noundef 0, ptr noundef nonnull @.str.273, ptr noundef %22, ptr noundef nonnull @.str.274)
  br label %24

24:                                               ; preds = %21, %17
  %.195 = phi i32 [ %19, %17 ], [ %.094114, %21 ]
  %.1 = phi i32 [ %20, %17 ], [ %.0115, %21 ]
  %25 = icmp sgt i32 %.1, 0
  br i1 %25, label %26, label %32

26:                                               ; preds = %24
  %27 = tail call zeroext i16 @elem_v(ptr noundef %0, ptr noundef %1, ptr noundef %2, i32 noundef 15, i32 noundef 28, i32 noundef %.195, ptr noundef null)
  %.not107 = icmp eq i16 %27, 0
  br i1 %.not107, label %32, label %28

28:                                               ; preds = %26
  %29 = zext i16 %27 to i32
  %30 = add i32 %.195, %29
  %31 = sub nsw i32 %.1, %29
  br label %35

32:                                               ; preds = %26, %24
  %33 = tail call ptr @get_gsm_a_msg_string(i32 noundef 15, i32 noundef 28)
  %34 = tail call ptr (ptr, ptr, ptr, ptr, i32, i32, ptr, ...) @proto_tree_add_expert_format(ptr noundef %1, ptr noundef %2, ptr noundef nonnull @ei_gmr1_missing_mandatory_element, ptr noundef %0, i32 noundef %.195, i32 noundef 0, ptr noundef nonnull @.str.273, ptr noundef %33, ptr noundef nonnull @.str.274)
  br label %35

35:                                               ; preds = %32, %28
  %.296 = phi i32 [ %30, %28 ], [ %.195, %32 ]
  %.2 = phi i32 [ %31, %28 ], [ %.1, %32 ]
  %36 = icmp sgt i32 %.2, 0
  br i1 %36, label %37, label %43

37:                                               ; preds = %35
  %38 = tail call zeroext i16 @elem_v(ptr noundef %0, ptr noundef %1, ptr noundef %2, i32 noundef 15, i32 noundef 29, i32 noundef %.296, ptr noundef null)
  %.not108 = icmp eq i16 %38, 0
  br i1 %.not108, label %43, label %39

39:                                               ; preds = %37
  %40 = zext i16 %38 to i32
  %41 = add i32 %.296, %40
  %42 = sub nsw i32 %.2, %40
  br label %46

43:                                               ; preds = %37, %35
  %44 = tail call ptr @get_gsm_a_msg_string(i32 noundef 15, i32 noundef 29)
  %45 = tail call ptr (ptr, ptr, ptr, ptr, i32, i32, ptr, ...) @proto_tree_add_expert_format(ptr noundef %1, ptr noundef %2, ptr noundef nonnull @ei_gmr1_missing_mandatory_element, ptr noundef %0, i32 noundef %.296, i32 noundef 0, ptr noundef nonnull @.str.273, ptr noundef %44, ptr noundef nonnull @.str.274)
  br label %46

46:                                               ; preds = %43, %39
  %.397 = phi i32 [ %41, %39 ], [ %.296, %43 ]
  %.3 = phi i32 [ %42, %39 ], [ %.2, %43 ]
  %47 = icmp sgt i32 %.3, 0
  br i1 %47, label %48, label %54

48:                                               ; preds = %46
  %49 = tail call zeroext i16 @elem_v(ptr noundef %0, ptr noundef %1, ptr noundef %2, i32 noundef 15, i32 noundef 24, i32 noundef %.397, ptr noundef null)
  %.not109 = icmp eq i16 %49, 0
  br i1 %.not109, label %54, label %50

50:                                               ; preds = %48
  %51 = zext i16 %49 to i32
  %52 = add i32 %.397, %51
  %53 = sub nsw i32 %.3, %51
  br label %57

54:                                               ; preds = %48, %46
  %55 = tail call ptr @get_gsm_a_msg_string(i32 noundef 15, i32 noundef 24)
  %56 = tail call ptr (ptr, ptr, ptr, ptr, i32, i32, ptr, ...) @proto_tree_add_expert_format(ptr noundef %1, ptr noundef %2, ptr noundef nonnull @ei_gmr1_missing_mandatory_element, ptr noundef %0, i32 noundef %.397, i32 noundef 0, ptr noundef nonnull @.str.273, ptr noundef %55, ptr noundef nonnull @.str.274)
  br label %57

57:                                               ; preds = %54, %50
  %.498 = phi i32 [ %52, %50 ], [ %.397, %54 ]
  %.4 = phi i32 [ %53, %50 ], [ %.3, %54 ]
  %58 = icmp sgt i32 %.4, 0
  br i1 %58, label %59, label %65

59:                                               ; preds = %57
  %60 = tail call zeroext i16 @elem_v(ptr noundef %0, ptr noundef %1, ptr noundef %2, i32 noundef 15, i32 noundef 25, i32 noundef %.498, ptr noundef null)
  %.not110 = icmp eq i16 %60, 0
  br i1 %.not110, label %65, label %61

61:                                               ; preds = %59
  %62 = zext i16 %60 to i32
  %63 = add i32 %.498, %62
  %64 = sub nsw i32 %.4, %62
  br label %68

65:                                               ; preds = %59, %57
  %66 = tail call ptr @get_gsm_a_msg_string(i32 noundef 15, i32 noundef 25)
  %67 = tail call ptr (ptr, ptr, ptr, ptr, i32, i32, ptr, ...) @proto_tree_add_expert_format(ptr noundef %1, ptr noundef %2, ptr noundef nonnull @ei_gmr1_missing_mandatory_element, ptr noundef %0, i32 noundef %.498, i32 noundef 0, ptr noundef nonnull @.str.273, ptr noundef %66, ptr noundef nonnull @.str.274)
  br label %68

68:                                               ; preds = %65, %61
  %.599 = phi i32 [ %63, %61 ], [ %.498, %65 ]
  %.5 = phi i32 [ %64, %61 ], [ %.4, %65 ]
  %69 = icmp sgt i32 %.5, 0
  br i1 %69, label %70, label %72

70:                                               ; preds = %68
  %71 = tail call zeroext i16 @elem_v(ptr noundef %0, ptr noundef %1, ptr noundef %2, i32 noundef 15, i32 noundef 30, i32 noundef %.599, ptr noundef null)
  %.not111 = icmp eq i16 %71, 0
  br i1 %.not111, label %72, label %75

72:                                               ; preds = %70, %68
  %73 = tail call ptr @get_gsm_a_msg_string(i32 noundef 15, i32 noundef 30)
  %74 = tail call ptr (ptr, ptr, ptr, ptr, i32, i32, ptr, ...) @proto_tree_add_expert_format(ptr noundef %1, ptr noundef %2, ptr noundef nonnull @ei_gmr1_missing_mandatory_element, ptr noundef %0, i32 noundef %.599, i32 noundef 0, ptr noundef nonnull @.str.273, ptr noundef %73, ptr noundef nonnull @.str.274)
  br label %75

75:                                               ; preds = %70, %72
  ret void
}